; Function Attrs: null_pointer_is_valid sspstrong uwtable
define internal void @rlc_frag_delete(ptr noundef captures(none) %0) #0 {
  %2 = getelementptr inbounds nuw i8, ptr %0, i64 40
  %3 = load ptr, ptr %2, align 8
  %.not = icmp eq ptr %3, null
  br i1 %.not, label %7, label %4

4:                                                ; preds = %1
  %5 = tail call ptr @wmem_file_scope()
  %6 = load ptr, ptr %2, align 8
  tail call void @wmem_free(ptr noundef %5, ptr noundef %6)
  store ptr null, ptr %2, align 8
  br label %7

7:                                                ; preds = %4, %1
  ret void
}